Certificate:
    Data:
        Version: 3 (0x2)
        Serial Number: 2 (0x2)
    Signature Algorithm: sha256WithRSAEncryption
        Issuer: C=XE, ST=Radius, L=Somewhere, O=Example Inc./emailAddress=admin@example.org, CN=eduroam xeap
        Validity
            Not Before: Nov 24 04:47:24 2015 GMT
            Not After : Jan 23 04:47:24 2016 GMT
        Subject: C=XE, ST=Radius, O=Example Inc., CN=user@example.org/emailAddress=user@example.org
        Subject Public Key Info:
            Public Key Algorithm: rsaEncryption
                Public-Key: (2048 bit)
                Modulus:
                    00:f3:7c:be:dd:15:0e:b6:e7:aa:d6:9f:7f:bf:d2:
                    40:07:a2:72:25:2f:35:02:f5:82:d9:e7:88:5a:74:
                    32:e6:94:cd:4b:8e:ed:c0:b8:c8:a8:a6:97:20:de:
                    64:2b:22:c8:15:25:67:9d:3e:94:02:8e:17:17:9c:
                    9d:f2:64:9b:23:15:b8:d7:c2:88:37:a7:a1:a4:66:
                    d4:d7:a3:21:eb:b5:bb:18:55:3a:f1:32:33:18:4e:
                    c0:ac:ad:f7:0b:c1:32:dc:a2:1e:d9:64:17:0a:b0:
                    18:06:12:55:99:fd:2c:6e:3b:82:10:85:03:24:77:
                    27:a0:50:e1:cc:e5:22:94:52:fc:40:22:db:2f:f5:
                    a2:81:42:c9:69:aa:c1:94:c6:2b:d4:6c:f0:f5:74:
                    a1:7a:74:50:85:94:01:4e:f3:67:f4:c1:98:fa:eb:
                    f9:9e:55:cc:03:2d:0e:31:cc:71:53:41:f8:29:f6:
                    37:f4:6c:1d:c8:df:35:90:9e:d5:b7:93:68:d3:c7:
                    cd:bf:11:f4:89:5e:60:ec:5d:8a:b0:ef:92:3a:ec:
                    65:ac:76:7b:87:73:c5:ee:b4:fb:13:64:17:de:30:
                    36:ac:dc:0f:3f:c1:63:24:a6:95:62:4e:8c:44:4f:
                    24:f8:f6:dc:ae:48:ec:8f:42:89:f7:07:fe:c3:da:
                    2a:b5
                Exponent: 65537 (0x10001)
        X509v3 extensions:
            X509v3 Extended Key Usage: 
                TLS Web Client Authentication
            X509v3 CRL Distribution Points: 

                Full Name:
                  URI:http://www.example.com/example_ca.crl

    Signature Algorithm: sha256WithRSAEncryption
         7a:d7:cf:4e:9b:18:4b:ea:fd:99:bd:af:52:59:ec:e9:b2:9c:
         6b:6b:63:65:2b:25:e8:fa:4b:dc:8e:03:be:f8:5f:8a:a2:de:
         5e:a0:78:45:60:a9:04:43:49:f3:ea:6b:30:da:0d:49:a6:07:
         21:68:9a:a2:17:85:80:00:6f:5d:57:10:ac:f8:75:b7:15:0d:
         49:07:15:19:24:f8:56:c5:b2:54:7d:d5:5f:76:39:78:33:cb:
         b1:65:57:7f:d1:93:91:49:6c:b7:53:f9:4a:79:21:78:1f:ee:
         7e:0b:3c:1c:6a:de:2d:46:c0:71:a9:02:89:e6:e7:c9:a7:22:
         42:35:4f:1b:4d:0f:0d:b6:44:5e:8e:6f:db:cf:0d:c8:0a:56:
         a3:43:51:3d:9e:b2:6a:81:d3:67:22:82:24:c1:fa:3e:1f:1b:
         23:2b:bd:c7:ed:e1:7f:9c:87:84:17:8f:c7:49:0d:ed:a2:a4:
         66:37:58:1f:07:04:9a:0e:09:71:de:f7:3b:81:e9:0a:d9:b2:
         21:da:e2:0d:bc:75:e7:99:5f:1e:1a:5d:12:54:0b:f4:19:b6:
         3a:01:dc:2a:7a:86:5b:43:df:3e:68:ae:38:8d:56:0e:c4:5d:
         3c:8a:1f:6c:39:a3:86:7f:c5:ce:e3:fc:e0:54:f7:f3:89:37:
         21:00:db:e7
-----BEGIN CERTIFICATE-----
MIIDvjCCAqagAwIBAgIBAjANBgkqhkiG9w0BAQsFADCBgjELMAkGA1UEBhMCWEUx
DzANBgNVBAgTBlJhZGl1czESMBAGA1UEBxMJU29tZXdoZXJlMRUwEwYDVQQKEwxF
eGFtcGxlIEluYy4xIDAeBgkqhkiG9w0BCQEWEWFkbWluQGV4YW1wbGUub3JnMRUw
EwYDVQQDEwxlZHVyb2FtIHhlYXAwHhcNMTUxMTI0MDQ0NzI0WhcNMTYwMTIzMDQ0
NzI0WjBxMQswCQYDVQQGEwJYRTEPMA0GA1UECBMGUmFkaXVzMRUwEwYDVQQKEwxF
eGFtcGxlIEluYy4xGTAXBgNVBAMUEHVzZXJAZXhhbXBsZS5vcmcxHzAdBgkqhkiG
9w0BCQEWEHVzZXJAZXhhbXBsZS5vcmcwggEiMA0GCSqGSIb3DQEBAQUAA4IBDwAw
ggEKAoIBAQDzfL7dFQ6256rWn3+/0kAHonIlLzUC9YLZ54hadDLmlM1Lju3AuMio
ppcg3mQrIsgVJWedPpQCjhcXnJ3yZJsjFbjXwog3p6GkZtTXoyHrtbsYVTrxMjMY
TsCsrfcLwTLcoh7ZZBcKsBgGElWZ/SxuO4IQhQMkdyegUOHM5SKUUvxAItsv9aKB
QslpqsGUxivUbPD1dKF6dFCFlAFO82f0wZj66/meVcwDLQ4xzHFTQfgp9jf0bB3I
3zWQntW3k2jTx82/EfSJXmDsXYqw75I67GWsdnuHc8XutPsTZBfeMDas3A8/wWMk
ppViToxETyT49tyuSOyPQon3B/7D2iq1AgMBAAGjTzBNMBMGA1UdJQQMMAoGCCsG
AQUFBwMCMDYGA1UdHwQvMC0wK6ApoCeGJWh0dHA6Ly93d3cuZXhhbXBsZS5jb20v
ZXhhbXBsZV9jYS5jcmwwDQYJKoZIhvcNAQELBQADggEBAHrXz06bGEvq/Zm9r1JZ
7OmynGtrY2UrJej6S9yOA774X4qi3l6geEVgqQRDSfPqazDaDUmmByFomqIXhYAA
b11XEKz4dbcVDUkHFRkk+FbFslR91V92OXgzy7FlV3/Rk5FJbLdT+Up5IXgf7n4L
PBxq3i1GwHGpAonm58mnIkI1TxtNDw22RF6Ob9vPDcgKVqNDUT2esmqB02cigiTB
+j4fGyMrvcft4X+ch4QXj8dJDe2ipGY3WB8HBJoOCXHe9zuB6QrZsiHa4g28deeZ
Xx4aXRJUC/QZtjoB3Cp6hltD3z5orjiNVg7EXTyKH2w5o4Z/xc7j/OBU9/OJNyEA
2+c=
-----END CERTIFICATE-----
