Certificate:
    Data:
        Version: 3 (0x2)
        Serial Number: 2 (0x2)
    Signature Algorithm: sha256WithRSAEncryption
        Issuer: C=FR, ST=Radius, L=Somewhere, O=Example Inc./emailAddress=admin@example.org, CN=Example Certificate Authority
        Validity
            Not Before: Nov 22 10:16:44 2015 GMT
            Not After : Jan 21 10:16:44 2016 GMT
        Subject: C=FR, ST=Radius, O=Example Inc., CN=user@example.org/emailAddress=user@example.org
        Subject Public Key Info:
            Public Key Algorithm: rsaEncryption
                Public-Key: (2048 bit)
                Modulus:
                    00:d6:38:a7:f4:9e:b9:b4:a2:92:96:14:30:c1:23:
                    87:be:f7:a8:5f:29:fb:19:c3:3e:41:f0:9b:8c:ef:
                    48:e1:8f:08:05:8a:dc:62:02:cd:1e:ba:a2:03:34:
                    fd:bd:86:b8:a1:3a:00:fd:e9:26:88:ac:f6:06:b5:
                    77:f6:9c:35:da:70:a9:9d:df:45:ff:27:bd:6a:05:
                    91:99:08:ec:19:9e:34:e2:d0:4a:81:a4:2f:00:94:
                    3f:3a:f2:36:ff:e7:0b:5a:36:18:70:dd:59:b2:68:
                    64:64:30:8d:45:44:b0:ca:7d:ba:6e:56:a2:1f:d5:
                    ab:79:be:17:4b:9e:94:e7:7f:97:de:6c:7f:ae:ef:
                    06:fc:e7:ce:9a:28:b2:f3:00:10:2a:8b:c2:bd:35:
                    18:1f:e9:80:26:01:26:04:45:87:28:d3:dd:2e:0b:
                    31:c2:cc:02:bd:3c:dc:b2:b0:22:9a:45:6a:2d:7e:
                    36:81:23:74:37:43:c3:9e:4f:14:0c:e6:01:c3:09:
                    3d:6c:51:92:e9:b1:36:66:dc:7a:ad:81:75:2e:64:
                    87:b3:65:7a:17:f7:fd:18:6e:9b:49:2c:a8:a9:d8:
                    26:1b:a2:da:e9:7d:8f:47:7d:e9:6e:8e:6e:79:22:
                    d3:83:99:f1:5b:84:e9:57:f3:32:1e:57:fc:43:71:
                    01:55
                Exponent: 65537 (0x10001)
        X509v3 extensions:
            X509v3 Extended Key Usage: 
                TLS Web Client Authentication
            X509v3 CRL Distribution Points: 

                Full Name:
                  URI:http://www.example.com/example_ca.crl

    Signature Algorithm: sha256WithRSAEncryption
         3b:32:e5:59:b3:f9:0d:10:28:e1:29:46:42:05:ac:df:c7:1c:
         9c:30:b1:42:4f:d7:7f:b9:67:99:e1:35:29:e3:8b:f7:01:b0:
         57:b5:07:c4:e1:00:b4:36:8f:83:42:2f:ea:2a:a5:45:04:d1:
         c5:f3:ac:7c:dc:3d:cf:2c:2a:c0:21:4c:e4:9b:a5:33:13:db:
         c7:12:cf:f9:61:aa:2e:9d:38:f8:02:a7:da:43:b5:f4:03:96:
         77:d9:7b:04:cc:b5:9b:08:49:19:74:98:65:87:3c:9a:8a:60:
         09:58:9a:ab:45:e2:4a:81:63:e1:bb:16:aa:17:d1:a4:63:7f:
         14:99:32:98:bc:d2:62:ab:36:3d:3a:82:67:10:c8:fb:5c:17:
         6a:60:d8:b4:7c:5c:de:a4:a8:dc:63:4e:de:a8:45:56:a4:75:
         8b:01:47:47:4f:57:85:a9:c4:f3:26:b2:63:a0:84:68:01:c6:
         0a:bb:b4:4a:d9:d6:3d:4e:c3:4f:14:8b:b7:d4:50:02:59:07:
         5b:14:be:5f:3c:84:d4:65:3c:3b:98:78:88:f3:8e:09:0d:01:
         c7:3d:66:7f:9b:48:16:56:d1:5a:80:9f:c0:36:c1:2f:90:85:
         a2:c7:7a:b8:63:7c:19:12:86:1d:cf:b9:fd:26:22:34:81:af:
         47:01:6c:1d
-----BEGIN CERTIFICATE-----
MIIDzzCCAregAwIBAgIBAjANBgkqhkiG9w0BAQsFADCBkzELMAkGA1UEBhMCRlIx
DzANBgNVBAgTBlJhZGl1czESMBAGA1UEBxMJU29tZXdoZXJlMRUwEwYDVQQKEwxF
eGFtcGxlIEluYy4xIDAeBgkqhkiG9w0BCQEWEWFkbWluQGV4YW1wbGUub3JnMSYw
JAYDVQQDEx1FeGFtcGxlIENlcnRpZmljYXRlIEF1dGhvcml0eTAeFw0xNTExMjIx
MDE2NDRaFw0xNjAxMjExMDE2NDRaMHExCzAJBgNVBAYTAkZSMQ8wDQYDVQQIEwZS
YWRpdXMxFTATBgNVBAoTDEV4YW1wbGUgSW5jLjEZMBcGA1UEAxQQdXNlckBleGFt
cGxlLm9yZzEfMB0GCSqGSIb3DQEJARYQdXNlckBleGFtcGxlLm9yZzCCASIwDQYJ
KoZIhvcNAQEBBQADggEPADCCAQoCggEBANY4p/SeubSikpYUMMEjh773qF8p+xnD
PkHwm4zvSOGPCAWK3GICzR66ogM0/b2GuKE6AP3pJois9ga1d/acNdpwqZ3fRf8n
vWoFkZkI7BmeNOLQSoGkLwCUPzryNv/nC1o2GHDdWbJoZGQwjUVEsMp9um5Woh/V
q3m+F0uelOd/l95sf67vBvznzpoosvMAECqLwr01GB/pgCYBJgRFhyjT3S4LMcLM
Ar083LKwIppFai1+NoEjdDdDw55PFAzmAcMJPWxRkumxNmbceq2BdS5kh7Nlehf3
/Rhum0ksqKnYJhui2ul9j0d96W6Obnki04OZ8VuE6VfzMh5X/ENxAVUCAwEAAaNP
ME0wEwYDVR0lBAwwCgYIKwYBBQUHAwIwNgYDVR0fBC8wLTAroCmgJ4YlaHR0cDov
L3d3dy5leGFtcGxlLmNvbS9leGFtcGxlX2NhLmNybDANBgkqhkiG9w0BAQsFAAOC
AQEAOzLlWbP5DRAo4SlGQgWs38ccnDCxQk/Xf7lnmeE1KeOL9wGwV7UHxOEAtDaP
g0Iv6iqlRQTRxfOsfNw9zywqwCFM5JulMxPbxxLP+WGqLp04+AKn2kO19AOWd9l7
BMy1mwhJGXSYZYc8mopgCViaq0XiSoFj4bsWqhfRpGN/FJkymLzSYqs2PTqCZxDI
+1wXamDYtHxc3qSo3GNO3qhFVqR1iwFHR09XhanE8yayY6CEaAHGCru0StnWPU7D
TxSLt9RQAlkHWxS+XzyE1GU8O5h4iPOOCQ0Bxz1mf5tIFlbRWoCfwDbBL5CFosd6
uGN8GRKGHc+5/SYiNIGvRwFsHQ==
-----END CERTIFICATE-----
